(lp0
(lp1
ccopy_reg
_reconstructor
p2
(ctwitter.status
Status
p3
c__builtin__
object
p4
Ntp5
Rp6
(dp7
S'_favorite_count'
p8
I0
sS'_location'
p9
NsS'_withheld_scope'
p10
NsS'hashtags'
p11
(lp12
sS'_truncated'
p13
I00
sS'_retweeted_status'
p14
NsS'_withheld_copyright'
p15
NsS'media'
p16
(lp17
sS'_place'
p18
NsS'_contributors'
p19
NsS'_current_user_retweet'
p20
NsS'_created_at'
p21
S'Sat Sep 19 14:47:59 +0000 2015'
p22
sS'_scopes'
p23
NsS'_possibly_sensitive'
p24
NsS'_in_reply_to_screen_name'
p25
NsS'_coordinates'
p26
NsS'_in_reply_to_user_id'
p27
NsS'_geo'
p28
NsS'_favorited'
p29
I00
sS'_withheld_in_countries'
p30
NsS'user_mentions'
p31
(lp32
sS'_now'
p33
NsS'_id_str'
p34
NsS'_in_reply_to_status_id'
p35
NsS'_text'
p36
S"You aren't epic."
p37
sS'_retweeted'
p38
I00
sS'lang'
p39
Ven
p40
sS'_user'
p41
g2
(ctwitter.user
User
p42
g4
Ntp43
Rp44
(dp45
g9
NsS'_profile_text_color'
p46
NsS'_lang'
p47
S'en'
p48
sS'_time_zone'
p49
NsS'_followers_count'
p50
I599
sS'_statuses_count'
p51
Nsg21
NsS'_verified'
p52
NsS'_description'
p53
NsS'_profile_image_url'
p54
S'https://pbs.twimg.com/profile_images/518829292508037120/hNW2jfjL_normal.jpeg'
p55
sS'_friends_count'
p56
I1887
sS'default_profile_image'
p57
NsS'_utc_offset'
p58
NsS'_status'
p59
NsS'_protected'
p60
NsS'_profile_banner_url'
p61
NsS'_notifications'
p62
NsS'_favourites_count'
p63
NsS'_profile_background_tile'
p64
NsS'_profile_link_color'
p65
NsS'_geo_enabled'
p66
NsS'_contributors_enabled'
p67
NsS'_profile_background_image_url'
p68
NsS'_screen_name'
p69
S'TiaraBoom1'
p70
sS'default_profile'
p71
NsS'_listed_count'
p72
NsS'_name'
p73
NsS'_profile_sidebar_fill_color'
p74
NsS'_url'
p75
NsS'_id'
p76
I2489360282
sS'_profile_background_color'
p77
NsbsS'_retweet_count'
p78
I0
sS'_source'
p79
V<a href="https://google.com" rel="nofollow">TiaraBoomReadOnly</a>
p80
sS'urls'
p81
(lp82
sg76
I645247972440080384
sbag2
(g3
g4
Ntp83
Rp84
(dp85
g8
I0
sg9
Nsg10
Nsg11
(lp86
sg13
I00
sg14
Nsg15
Nsg16
(lp87
sg18
Nsg19
Nsg20
Nsg21
S'Sat Sep 19 15:16:22 +0000 2015'
p88
sg23
Nsg24
Nsg25
VTiaraBoom1
p89
sg26
Nsg27
I2489360282
sg28
Nsg29
I00
sg30
Nsg31
(lp90
g2
(g42
g4
Ntp91
Rp92
(dp93
g9
Nsg46
Nsg47
Nsg49
Nsg50
Nsg51
Nsg21
Nsg52
Nsg53
Nsg54
Nsg56
Nsg57
Nsg58
Nsg59
Nsg60
Nsg61
Nsg62
Nsg63
Nsg64
Nsg65
Nsg66
Nsg67
Nsg68
Nsg69
VTiaraBoom1
p94
sg71
Nsg72
Nsg73
VTiara Boom
p95
sg74
Nsg75
Nsg76
I2489360282
sg77
Nsbasg33
Nsg34
Nsg35
I645247972440080384
sg36
S"@TiaraBoom1 You're mean..."
p96
sg38
I00
sg39
Ven
p97
sg41
g2
(g42
g4
Ntp98
Rp99
(dp100
g9
Nsg46
Nsg47
S'en'
p101
sg49
Nsg50
I30
sg51
Nsg21
Nsg52
Nsg53
Nsg54
S'https://pbs.twimg.com/profile_images/547535437112557568/7dVrxwdB_normal.jpeg'
p102
sg56
I157
sg57
Nsg58
Nsg59
Nsg60
Nsg61
Nsg62
Nsg63
Nsg64
Nsg65
Nsg66
Nsg67
Nsg68
Nsg69
S'JsnFeldman'
p103
sg71
Nsg72
Nsg73
Nsg74
Nsg75
Nsg76
I898863698
sg77
Nsbsg78
I0
sg79
V<a href="http://twitter.com/download/android" rel="nofollow">Twitter for Android</a>
p104
sg81
(lp105
sg76
I645255116182941696
sbag2
(g3
g4
Ntp106
Rp107
(dp108
g8
I0
sg9
Nsg10
Nsg11
(lp109
sg13
I00
sg14
Nsg15
Nsg16
(lp110
sg18
Nsg19
Nsg20
Nsg21
S'Sat Sep 19 15:17:14 +0000 2015'
p111
sg23
Nsg24
Nsg25
VJsnFeldman
p112
sg26
Nsg27
I898863698
sg28
Nsg29
I00
sg30
Nsg31
(lp113
g2
(g42
g4
Ntp114
Rp115
(dp116
g9
Nsg46
Nsg47
Nsg49
Nsg50
Nsg51
Nsg21
Nsg52
Nsg53
Nsg54
Nsg56
Nsg57
Nsg58
Nsg59
Nsg60
Nsg61
Nsg62
Nsg63
Nsg64
Nsg65
Nsg66
Nsg67
Nsg68
Nsg69
VJsnFeldman
p117
sg71
Nsg72
Nsg73
VJason Feldman
p118
sg74
Nsg75
Nsg76
I898863698
sg77
Nsbasg33
Nsg34
Nsg35
I645255116182941696
sg36
S"@JsnFeldman You are yourself, and I'm stoked."
p119
sg38
I00
sg39
Ven
p120
sg41
g44
sg78
I0
sg79
V<a href="https://google.com" rel="nofollow">TiaraBoomReadOnly</a>
p121
sg81
(lp122
sg76
I645255331937849344
sbag2
(g3
g4
Ntp123
Rp124
(dp125
g8
I0
sg9
Nsg10
Nsg11
(lp126
sg13
I00
sg14
Nsg15
Nsg16
(lp127
sg18
Nsg19
Nsg20
Nsg21
S'Sat Sep 19 15:20:18 +0000 2015'
p128
sg23
Nsg24
Nsg25
VTiaraBoom1
p129
sg26
Nsg27
I2489360282
sg28
Nsg29
I00
sg30
Nsg31
(lp130
g2
(g42
g4
Ntp131
Rp132
(dp133
g9
Nsg46
Nsg47
Nsg49
Nsg50
Nsg51
Nsg21
Nsg52
Nsg53
Nsg54
Nsg56
Nsg57
Nsg58
Nsg59
Nsg60
Nsg61
Nsg62
Nsg63
Nsg64
Nsg65
Nsg66
Nsg67
Nsg68
Nsg69
VTiaraBoom1
p134
sg71
Nsg72
Nsg73
VTiara Boom
p135
sg74
Nsg75
Nsg76
I2489360282
sg77
Nsbasg33
Nsg34
Nsg35
I645255331937849344
sg36
S"@TiaraBoom1 Are you saying that I'm mean, or that I am who I am?"
p136
sg38
I00
sg39
Ven
p137
sg41
g99
sg78
I0
sg79
V<a href="http://twitter.com/download/android" rel="nofollow">Twitter for Android</a>
p138
sg81
(lp139
sg76
I645256105224982529
sbag2
(g3
g4
Ntp140
Rp141
(dp142
g8
I0
sg9
Nsg10
Nsg11
(lp143
sg13
I00
sg14
Nsg15
Nsg16
(lp144
sg18
Nsg19
Nsg20
Nsg21
S'Sat Sep 19 15:31:35 +0000 2015'
p145
sg23
Nsg24
Nsg25
VJsnFeldman
p146
sg26
Nsg27
I898863698
sg28
Nsg29
I00
sg30
Nsg31
(lp147
g2
(g42
g4
Ntp148
Rp149
(dp150
g9
Nsg46
Nsg47
Nsg49
Nsg50
Nsg51
Nsg21
Nsg52
Nsg53
Nsg54
Nsg56
Nsg57
Nsg58
Nsg59
Nsg60
Nsg61
Nsg62
Nsg63
Nsg64
Nsg65
Nsg66
Nsg67
Nsg68
Nsg69
VJsnFeldman
p151
sg71
Nsg72
Nsg73
VJason Feldman
p152
sg74
Nsg75
Nsg76
I898863698
sg77
Nsbasg33
Nsg34
Nsg35
I645256105224982529
sg36
S'@JsnFeldman Are we ourselves?'
p153
sg38
I00
sg39
Ven
p154
sg41
g44
sg78
I0
sg79
V<a href="https://google.com" rel="nofollow">TiaraBoomReadOnly</a>
p155
sg81
(lp156
sg76
I645258943623639040
sbag2
(g3
g4
Ntp157
Rp158
(dp159
g8
I0
sg9
Nsg10
Nsg11
(lp160
sg13
I00
sg14
Nsg15
Nsg16
(lp161
sg18
Nsg19
Nsg20
Nsg21
S'Sat Sep 19 15:32:31 +0000 2015'
p162
sg23
Nsg24
Nsg25
VTiaraBoom1
p163
sg26
Nsg27
I2489360282
sg28
Nsg29
I00
sg30
Nsg31
(lp164
g2
(g42
g4
Ntp165
Rp166
(dp167
g9
Nsg46
Nsg47
Nsg49
Nsg50
Nsg51
Nsg21
Nsg52
Nsg53
Nsg54
Nsg56
Nsg57
Nsg58
Nsg59
Nsg60
Nsg61
Nsg62
Nsg63
Nsg64
Nsg65
Nsg66
Nsg67
Nsg68
Nsg69
VTiaraBoom1
p168
sg71
Nsg72
Nsg73
VTiara Boom
p169
sg74
Nsg75
Nsg76
I2489360282
sg77
Nsbasg33
Nsg34
Nsg35
I645258943623639040
sg36
S'@TiaraBoom1 Typically.'
p170
sg38
I00
sg39
Ven
p171
sg41
g99
sg78
I0
sg79
V<a href="http://twitter.com/download/android" rel="nofollow">Twitter for Android</a>
p172
sg81
(lp173
sg76
I645259181704876032
sbag2
(g3
g4
Ntp174
Rp175
(dp176
g8
I0
sg9
Nsg10
Nsg11
(lp177
sg13
I00
sg14
Nsg15
Nsg16
(lp178
sg18
Nsg19
Nsg20
Nsg21
S'Sat Sep 19 15:41:48 +0000 2015'
p179
sg23
Nsg24
Nsg25
VJsnFeldman
p180
sg26
Nsg27
I898863698
sg28
Nsg29
I00
sg30
Nsg31
(lp181
g2
(g42
g4
Ntp182
Rp183
(dp184
g9
Nsg46
Nsg47
Nsg49
Nsg50
Nsg51
Nsg21
Nsg52
Nsg53
Nsg54
Nsg56
Nsg57
Nsg58
Nsg59
Nsg60
Nsg61
Nsg62
Nsg63
Nsg64
Nsg65
Nsg66
Nsg67
Nsg68
Nsg69
VJsnFeldman
p185
sg71
Nsg72
Nsg73
VJason Feldman
p186
sg74
Nsg75
Nsg76
I898863698
sg77
Nsbasg33
Nsg34
Nsg35
I645259181704876032
sg36
S'@JsnFeldman Was I you?'
p187
sg38
I00
sg39
Ven
p188
sg41
g44
sg78
I0
sg79
V<a href="https://google.com" rel="nofollow">TiaraBoomReadOnly</a>
p189
sg81
(lp190
sg76
I645261518083223552
sbag2
(g3
g4
Ntp191
Rp192
(dp193
g8
I0
sg9
Nsg10
Nsg11
(lp194
sg13
I00
sg14
Nsg15
Nsg16
(lp195
sg18
Nsg19
Nsg20
Nsg21
S'Sat Sep 19 15:42:16 +0000 2015'
p196
sg23
Nsg24
Nsg25
VTiaraBoom1
p197
sg26
Nsg27
I2489360282
sg28
Nsg29
I00
sg30
Nsg31
(lp198
g2
(g42
g4
Ntp199
Rp200
(dp201
g9
Nsg46
Nsg47
Nsg49
Nsg50
Nsg51
Nsg21
Nsg52
Nsg53
Nsg54
Nsg56
Nsg57
Nsg58
Nsg59
Nsg60
Nsg61
Nsg62
Nsg63
Nsg64
Nsg65
Nsg66
Nsg67
Nsg68
Nsg69
VTiaraBoom1
p202
sg71
Nsg72
Nsg73
VTiara Boom
p203
sg74
Nsg75
Nsg76
I2489360282
sg77
Nsbasg33
Nsg34
Nsg35
I645261518083223552
sg36
S'@TiaraBoom1 Quit getting existential!'
p204
sg38
I00
sg39
Ven
p205
sg41
g99
sg78
I0
sg79
V<a href="http://twitter.com/download/android" rel="nofollow">Twitter for Android</a>
p206
sg81
(lp207
sg76
I645261632369762304
sbag2
(g3
g4
Ntp208
Rp209
(dp210
g8
I0
sg9
Nsg10
Nsg11
(lp211
sg13
I00
sg14
Nsg15
Nsg16
(lp212
sg18
Nsg19
Nsg20
Nsg21
S'Sat Sep 19 15:50:19 +0000 2015'
p213
sg23
Nsg24
Nsg25
VJsnFeldman
p214
sg26
Nsg27
I898863698
sg28
Nsg29
I00
sg30
Nsg31
(lp215
g2
(g42
g4
Ntp216
Rp217
(dp218
g9
Nsg46
Nsg47
Nsg49
Nsg50
Nsg51
Nsg21
Nsg52
Nsg53
Nsg54
Nsg56
Nsg57
Nsg58
Nsg59
Nsg60
Nsg61
Nsg62
Nsg63
Nsg64
Nsg65
Nsg66
Nsg67
Nsg68
Nsg69
VJsnFeldman
p219
sg71
Nsg72
Nsg73
VJason Feldman
p220
sg74
Nsg75
Nsg76
I898863698
sg77
Nsbasg33
Nsg34
Nsg35
I645261632369762304
sg36
S'@JsnFeldman Is it me or is it me?'
p221
sg38
I00
sg39
Ven
p222
sg41
g44
sg78
I0
sg79
V<a href="https://google.com" rel="nofollow">TiaraBoomReadOnly</a>
p223
sg81
(lp224
sg76
I645263659703234560
sbag2
(g3
g4
Ntp225
Rp226
(dp227
g8
I0
sg9
Nsg10
Nsg11
(lp228
sg13
I00
sg14
Nsg15
Nsg16
(lp229
sg18
Nsg19
Nsg20
Nsg21
S'Sat Sep 19 19:51:57 +0000 2015'
p230
sg23
Nsg24
Nsg25
VTiaraBoom1
p231
sg26
Nsg27
I2489360282
sg28
Nsg29
I00
sg30
Nsg31
(lp232
g2
(g42
g4
Ntp233
Rp234
(dp235
g9
Nsg46
Nsg47
Nsg49
Nsg50
Nsg51
Nsg21
Nsg52
Nsg53
Nsg54
Nsg56
Nsg57
Nsg58
Nsg59
Nsg60
Nsg61
Nsg62
Nsg63
Nsg64
Nsg65
Nsg66
Nsg67
Nsg68
Nsg69
VTiaraBoom1
p236
sg71
Nsg72
Nsg73
VTiara Boom
p237
sg74
Nsg75
Nsg76
I2489360282
sg77
Nsbasg33
Nsg34
Nsg35
I645263659703234560
sg36
S'@TiaraBoom1 Yes, by definition.'
p238
sg38
I00
sg39
Ven
p239
sg41
g99
sg78
I0
sg79
V<a href="http://twitter.com/download/android" rel="nofollow">Twitter for Android</a>
p240
sg81
(lp241
sg76
I645324467783225345
sbag2
(g3
g4
Ntp242
Rp243
(dp244
g8
I0
sg9
Nsg10
Nsg11
(lp245
sg13
I00
sg14
Nsg15
Nsg16
(lp246
sg18
Nsg19
Nsg20
Nsg21
S'Sat Sep 19 19:53:08 +0000 2015'
p247
sg23
Nsg24
Nsg25
VJsnFeldman
p248
sg26
Nsg27
I898863698
sg28
Nsg29
I00
sg30
Nsg31
(lp249
g2
(g42
g4
Ntp250
Rp251
(dp252
g9
Nsg46
Nsg47
Nsg49
Nsg50
Nsg51
Nsg21
Nsg52
Nsg53
Nsg54
Nsg56
Nsg57
Nsg58
Nsg59
Nsg60
Nsg61
Nsg62
Nsg63
Nsg64
Nsg65
Nsg66
Nsg67
Nsg68
Nsg69
VJsnFeldman
p253
sg71
Nsg72
Nsg73
VJason Feldman
p254
sg74
Nsg75
Nsg76
I898863698
sg77
Nsbasg33
Nsg34
Nsg35
I645324467783225345
sg36
S"@JsnFeldman I think you should quit the definitions, and his minutest smile isn't deeper than that god-handler and drier than Sam."
p255
sg38
I00
sg39
Ven
p256
sg41
g44
sg78
I0
sg79
V<a href="https://google.com" rel="nofollow">TiaraBoomReadOnly</a>
p257
sg81
(lp258
sg76
I645324767071854592
sbaa(lp259
g2
(g3
g4
Ntp260
Rp261
(dp262
g8
I0
sg9
Nsg10
Nsg11
(lp263
sg13
I00
sg14
Nsg15
Nsg16
(lp264
sg18
Nsg19
Nsg20
Nsg21
S'Sat Sep 19 01:16:12 +0000 2015'
p265
sg23
Nsg24
Nsg25
Nsg26
Nsg27
Nsg28
Nsg29
I00
sg30
Nsg31
(lp266
sg33
Nsg34
Nsg35
Nsg36
S'goldberg wrote we call it crony corporatism, or crony socialism'
p267
sg38
I00
sg39
Ven
p268
sg41
g2
(g42
g4
Ntp269
Rp270
(dp271
g9
Nsg46
Nsg47
S'en'
p272
sg49
Nsg50
I28
sg51
Nsg21
Nsg52
Nsg53
Nsg54
S'https://pbs.twimg.com/profile_images/637757292222394370/l8g-poaz_normal.jpg'
p273
sg56
I110
sg57
Nsg58
Nsg59
Nsg60
Nsg61
Nsg62
Nsg63
Nsg64
Nsg65
Nsg66
Nsg67
Nsg68
Nsg69
S'feffernert'
p274
sg71
Nsg72
Nsg73
Nsg74
Nsg75
Nsg76
I3323459426
sg77
Nsbsg78
I0
sg79
V<a href="https://twitter.com/feffernert" rel="nofollow">sausal</a>
p275
sg81
(lp276
sg76
I645043682203176960
sbag2
(g3
g4
Ntp277
Rp278
(dp279
g8
I0
sg9
Nsg10
Nsg11
(lp280
sg13
I00
sg14
Nsg15
Nsg16
(lp281
sg18
Nsg19
Nsg20
Nsg21
S'Sat Sep 19 01:18:04 +0000 2015'
p282
sg23
Nsg24
Nsg25
Vfeffernert
p283
sg26
Nsg27
I3323459426
sg28
Nsg29
I00
sg30
Nsg31
(lp284
g2
(g42
g4
Ntp285
Rp286
(dp287
g9
Nsg46
Nsg47
Nsg49
Nsg50
Nsg51
Nsg21
Nsg52
Nsg53
Nsg54
Nsg56
Nsg57
Nsg58
Nsg59
Nsg60
Nsg61
Nsg62
Nsg63
Nsg64
Nsg65
Nsg66
Nsg67
Nsg68
Nsg69
Vfeffernert
p288
sg71
Nsg72
Nsg73
VSausal Feffernert
p289
sg74
Nsg75
Nsg76
I3323459426
sg77
Nsbasg33
Nsg34
Nsg35
I645043682203176960
sg36
S'Commie &amp;#9773; Mints RT @feffernert goldberg wrote we call it crony corporatism, or crony socialism'
p290
sg38
I00
sg39
Ven
p291
sg41
g2
(g42
g4
Ntp292
Rp293
(dp294
g9
Nsg46
Nsg47
S'en'
p295
sg49
Nsg50
I14698
sg51
Nsg21
Nsg52
Nsg53
Nsg54
S'https://pbs.twimg.com/profile_images/382754962/mccarthy_normal.jpg'
p296
sg56
I134
sg57
Nsg58
Nsg59
Nsg60
Nsg61
Nsg62
Nsg63
Nsg64
Nsg65
Nsg66
Nsg67
Nsg68
Nsg69
S'RedScareBot'
p297
sg71
Nsg72
Nsg73
Nsg74
Nsg75
Nsg76
I68956490
sg77
Nsbsg78
I1
sg79
V<a href="http://twitter.com/RedScareBot" rel="nofollow">RedScareBot</a>
p298
sg81
(lp299
sg76
I645044148727250944
sbag2
(g3
g4
Ntp300
Rp301
(dp302
g8
I0
sg9
Nsg10
Nsg11
(lp303
sg13
I00
sg14
Nsg15
Nsg16
(lp304
sg18
Nsg19
Nsg20
Nsg21
S'Sat Sep 19 01:25:10 +0000 2015'
p305
sg23
Nsg24
Nsg25
VRedScareBot
p306
sg26
Nsg27
I68956490
sg28
Nsg29
I00
sg30
Nsg31
(lp307
g2
(g42
g4
Ntp308
Rp309
(dp310
g9
Nsg46
Nsg47
Nsg49
Nsg50
Nsg51
Nsg21
Nsg52
Nsg53
Nsg54
Nsg56
Nsg57
Nsg58
Nsg59
Nsg60
Nsg61
Nsg62
Nsg63
Nsg64
Nsg65
Nsg66
Nsg67
Nsg68
Nsg69
VRedScareBot
p311
sg71
Nsg72
Nsg73
VRobot J. McCarthy
p312
sg74
Nsg75
Nsg76
I68956490
sg77
Nsbasg33
Nsg34
Nsg35
I645044148727250944
sg36
S'@RedScareBot those changes was a clear, and verifiable, effort to discredit him, and her cronies represent a war'
p313
sg38
I00
sg39
Ven
p314
sg41
g270
sg78
I0
sg79
V<a href="https://twitter.com/feffernert" rel="nofollow">sausal</a>
p315
sg81
(lp316
sg76
I645045937044238336
sbaa(lp317
g2
(g3
g4
Ntp318
Rp319
(dp320
g8
I16
sg9
Nsg10
Nsg11
(lp321
g2
(ctwitter.hashtag
Hashtag
p322
g4
Ntp323
Rp324
(dp325
S'text'
p326
Vtcot
p327
sbag2
(g322
g4
Ntp328
Rp329
(dp330
g326
Vccot
p331
sbasg13
I00
sg14
Nsg15
Nsg16
(lp332
sg18
Nsg19
Nsg20
Nsg21
S'Wed Sep 16 20:22:26 +0000 2015'
p333
sg23
Nsg24
Nsg25
Nsg26
Nsg27
Nsg28
Nsg29
I00
sg30
Nsg31
(lp334
sg33
Nsg34
Nsg35
Nsg36
S"To be great again America must not just have materialistic goals such as Trump's, but higher ones such as those espoused by Cruz\xe3\x80\x82#tcot #ccot"
p335
sg38
I00
sg39
Ven
p336
sg41
g2
(g42
g4
Ntp337
Rp338
(dp339
g9
Nsg46
Nsg47
S'en'
p340
sg49
Nsg50
I289298
sg51
Nsg21
Nsg52
Nsg53
Nsg54
S'https://pbs.twimg.com/profile_images/1112759817/BraveLad_normal.jpg'
p341
sg56
I308943
sg57
Nsg58
Nsg59
Nsg60
Nsg61
Nsg62
Nsg63
Nsg64
Nsg65
Nsg66
Nsg67
Nsg68
Nsg69
S'BraveLad'
p342
sg71
Nsg72
Nsg73
Nsg74
Nsg75
Nsg76
I16703058
sg77
Nsbsg78
I18
sg79
V<a href="http://twitter.com" rel="nofollow">Twitter Web Client</a>
p343
sg81
(lp344
sg76
I644244975354429441
sbag2
(g3
g4
Ntp345
Rp346
(dp347
g8
I0
sg9
Nsg10
Nsg11
(lp348
sg13
I00
sg14
Nsg15
Nsg16
(lp349
sg18
Nsg19
Nsg20
Nsg21
S'Wed Sep 16 20:39:21 +0000 2015'
p350
sg23
Nsg24
Nsg25
VBraveLad
p351
sg26
Nsg27
I16703058
sg28
Nsg29
I00
sg30
Nsg31
(lp352
g2
(g42
g4
Ntp353
Rp354
(dp355
g9
Nsg46
Nsg47
Nsg49
Nsg50
Nsg51
Nsg21
Nsg52
Nsg53
Nsg54
Nsg56
Nsg57
Nsg58
Nsg59
Nsg60
Nsg61
Nsg62
Nsg63
Nsg64
Nsg65
Nsg66
Nsg67
Nsg68
Nsg69
VBraveLad
p356
sg71
Nsg72
Nsg73
VMarkham Robinson
p357
sg74
Nsg75
Nsg76
I16703058
sg77
Nsbasg33
Nsg34
Nsg35
I644244975354429441
sg36
S'@BraveLad would love a Carson and Cruz presidency.'
p358
sg38
I00
sg39
Ven
p359
sg41
g2
(g42
g4
Ntp360
Rp361
(dp362
g9
Nsg46
Nsg47
S'en'
p363
sg49
Nsg50
I268
sg51
Nsg21
Nsg52
Nsg53
Nsg54
S'https://pbs.twimg.com/profile_images/642311094497841152/i34zbS3G_normal.jpg'
p364
sg56
I258
sg57
Nsg58
Nsg59
Nsg60
Nsg61
Nsg62
Nsg63
Nsg64
Nsg65
Nsg66
Nsg67
Nsg68
Nsg69
S'bazuin86'
p365
sg71
Nsg72
Nsg73
Nsg74
Nsg75
Nsg76
I1578535459
sg77
Nsbsg78
I0
sg79
V<a href="http://twitter.com/download/android" rel="nofollow">Twitter for Android</a>
p366
sg81
(lp367
sg76
I644249232409559040
sbag2
(g3
g4
Ntp368
Rp369
(dp370
g8
I0
sg9
Nsg10
Nsg11
(lp371
sg13
I00
sg14
Nsg15
Nsg16
(lp372
sg18
Nsg19
Nsg20
Nsg21
S'Wed Sep 16 22:07:42 +0000 2015'
p373
sg23
Nsg24
Nsg25
VBraveLad
p374
sg26
Nsg27
I16703058
sg28
Nsg29
I00
sg30
Nsg31
(lp375
g2
(g42
g4
Ntp376
Rp377
(dp378
g9
Nsg46
Nsg47
Nsg49
Nsg50
Nsg51
Nsg21
Nsg52
Nsg53
Nsg54
Nsg56
Nsg57
Nsg58
Nsg59
Nsg60
Nsg61
Nsg62
Nsg63
Nsg64
Nsg65
Nsg66
Nsg67
Nsg68
Nsg69
VBraveLad
p379
sg71
Nsg72
Nsg73
VMarkham Robinson
p380
sg74
Nsg75
Nsg76
I16703058
sg77
Nsbasg33
Nsg34
Nsg35
I644244975354429441
sg36
S'@BraveLad keeping cruz is a long goal, but it should not be used as cause of death'
p381
sg38
I00
sg39
Ven
p382
sg41
g270
sg78
I0
sg79
V<a href="https://twitter.com/feffernert" rel="nofollow">sausal</a>
p383
sg81
(lp384
sg76
I644271468990238720
sbag2
(g3
g4
Ntp385
Rp386
(dp387
g8
I1
sg9
Nsg10
Nsg11
(lp388
sg13
I00
sg14
Nsg15
Nsg16
(lp389
sg18
Nsg19
Nsg20
Nsg21
S'Thu Sep 17 06:10:11 +0000 2015'
p390
sg23
Nsg24
Nsg25
VBraveLad
p391
sg26
Nsg27
I16703058
sg28
Nsg29
I00
sg30
Nsg31
(lp392
g2
(g42
g4
Ntp393
Rp394
(dp395
g9
Nsg46
Nsg47
Nsg49
Nsg50
Nsg51
Nsg21
Nsg52
Nsg53
Nsg54
Nsg56
Nsg57
Nsg58
Nsg59
Nsg60
Nsg61
Nsg62
Nsg63
Nsg64
Nsg65
Nsg66
Nsg67
Nsg68
Nsg69
VBraveLad
p396
sg71
Nsg72
Nsg73
VMarkham Robinson
p397
sg74
Nsg75
Nsg76
I16703058
sg77
Nsbasg33
Nsg34
Nsg35
I644244975354429441
sg36
S'@BraveLad For me the strongest candidate on preserving the constitution is Cruz by far - and that is of huge importance to me'
p398
sg38
I00
sg39
Ven
p399
sg41
g2
(g42
g4
Ntp400
Rp401
(dp402
g9
Nsg46
Nsg47
S'en'
p403
sg49
Nsg50
I1720
sg51
Nsg21
Nsg52
Nsg53
Nsg54
S'https://pbs.twimg.com/profile_images/632670322127343616/w90PNz9v_normal.jpg'
p404
sg56
I1882
sg57
Nsg58
Nsg59
Nsg60
Nsg61
Nsg62
Nsg63
Nsg64
Nsg65
Nsg66
Nsg67
Nsg68
Nsg69
S'mjohnsonx15'
p405
sg71
Nsg72
Nsg73
Nsg74
Nsg75
Nsg76
I789565747
sg77
Nsbsg78
I0
sg79
V<a href="http://twitter.com/download/iphone" rel="nofollow">Twitter for iPhone</a>
p406
sg81
(lp407
sg76
I644392890056110081
sbaa(lp408
g2
(g3
g4
Ntp409
Rp410
(dp411
g8
I0
sg9
Nsg10
Nsg11
(lp412
g2
(g322
g4
Ntp413
Rp414
(dp415
g326
VPeriscope
p416
sbasg13
I00
sg14
Nsg15
Nsg16
(lp417
sg18
Nsg19
Nsg20
Nsg21
S'Wed Sep 16 16:24:27 +0000 2015'
p418
sg23
Nsg24
Nsg25
Nsg26
Nsg27
Nsg28
Nsg29
I00
sg30
Nsg31
(lp419
sg33
Nsg34
Nsg35
Nsg36
S'LIVE on #Periscope: Lake Percy Priest -Nashville  https://t.co/NwC3P1hsjS'
p420
sg38
I00
sg39
Ven
p421
sg41
g2
(g42
g4
Ntp422
Rp423
(dp424
g9
Nsg46
Nsg47
S'en'
p425
sg49
Nsg50
I815
sg51
Nsg21
Nsg52
Nsg53
Nsg54
S'https://pbs.twimg.com/profile_images/477194601158045696/1VUKPTXP_normal.jpeg'
p426
sg56
I1994
sg57
Nsg58
Nsg59
Nsg60
Nsg61
Nsg62
Nsg63
Nsg64
Nsg65
Nsg66
Nsg67
Nsg68
Nsg69
S'Gunntwitt'
p427
sg71
Nsg72
Nsg73
Nsg74
Nsg75
Nsg76
I175584371
sg77
Nsbsg78
I0
sg79
V<a href="https://periscope.tv" rel="nofollow">Periscope.TV</a>
p428
sg81
(lp429
g2
(ctwitter.url
Url
p430
g4
Ntp431
Rp432
(dp433
S'url'
p434
Vhttps://t.co/NwC3P1hsjS
p435
sS'expanded_url'
p436
Vhttps://www.periscope.tv/w/aMmPOjIyOTAwMnwxT3d4V2pOTVp3d0pRyKe1B-oUrqC1iUp_YI8Es5ijiY-qGNCN2fnK1VlGg-o=
p437
sbasg76
I644185083788808192
sbag2
(g3
g4
Ntp438
Rp439
(dp440
g8
I0
sg9
Nsg10
Nsg11
(lp441
sg13
I00
sg14
Nsg15
Nsg16
(lp442
sg18
Nsg19
Nsg20
Nsg21
S'Wed Sep 16 19:29:57 +0000 2015'
p443
sg23
Nsg24
Nsg25
VGunntwitt
p444
sg26
Nsg27
I175584371
sg28
Nsg29
I00
sg30
Nsg31
(lp445
g2
(g42
g4
Ntp446
Rp447
(dp448
g9
Nsg46
Nsg47
Nsg49
Nsg50
Nsg51
Nsg21
Nsg52
Nsg53
Nsg54
Nsg56
Nsg57
Nsg58
Nsg59
Nsg60
Nsg61
Nsg62
Nsg63
Nsg64
Nsg65
Nsg66
Nsg67
Nsg68
Nsg69
VGunntwitt
p449
sg71
Nsg72
Nsg73
VThe Panic
p450
sg74
Nsg75
Nsg76
I175584371
sg77
Nsbasg33
Nsg34
Nsg35
I644185083788808192
sg36
S'@Gunntwitt lived, and go start the company, in europe'
p451
sg38
I00
sg39
Ven
p452
sg41
g270
sg78
I0
sg79
V<a href="https://twitter.com/feffernert" rel="nofollow">sausal</a>
p453
sg81
(lp454
sg76
I644231770259324928
sbag2
(g3
g4
Ntp455
Rp456
(dp457
g8
I0
sg9
Nsg10
Nsg11
(lp458
sg13
I00
sg14
Nsg15
Nsg16
(lp459
sg18
Nsg19
Nsg20
Nsg21
S'Wed Sep 16 19:58:30 +0000 2015'
p460
sg23
Nsg24
Nsg25
Vfeffernert
p461
sg26
Nsg27
I3323459426
sg28
Nsg29
I00
sg30
Nsg31
(lp462
g2
(g42
g4
Ntp463
Rp464
(dp465
g9
Nsg46
Nsg47
Nsg49
Nsg50
Nsg51
Nsg21
Nsg52
Nsg53
Nsg54
Nsg56
Nsg57
Nsg58
Nsg59
Nsg60
Nsg61
Nsg62
Nsg63
Nsg64
Nsg65
Nsg66
Nsg67
Nsg68
Nsg69
Vfeffernert
p466
sg71
Nsg72
Nsg73
VSausal Feffernert
p467
sg74
Nsg75
Nsg76
I3323459426
sg77
Nsbasg33
Nsg34
Nsg35
I644231770259324928
sg36
S'@feffernert huh?  Not sure I understand, that one'
p468
sg38
I00
sg39
Ven
p469
sg41
g423
sg78
I0
sg79
V<a href="http://twitter.com/download/iphone" rel="nofollow">Twitter for iPhone</a>
p470
sg81
(lp471
sg76
I644238954485653504
sbag2
(g3
g4
Ntp472
Rp473
(dp474
g8
I0
sg9
Nsg10
Nsg11
(lp475
sg13
I00
sg14
Nsg15
Nsg16
(lp476
sg18
Nsg19
Nsg20
Nsg21
S'Wed Sep 16 20:02:00 +0000 2015'
p477
sg23
Nsg24
Nsg25
VGunntwitt
p478
sg26
Nsg27
I175584371
sg28
Nsg29
I00
sg30
Nsg31
(lp479
g2
(g42
g4
Ntp480
Rp481
(dp482
g9
Nsg46
Nsg47
Nsg49
Nsg50
Nsg51
Nsg21
Nsg52
Nsg53
Nsg54
Nsg56
Nsg57
Nsg58
Nsg59
Nsg60
Nsg61
Nsg62
Nsg63
Nsg64
Nsg65
Nsg66
Nsg67
Nsg68
Nsg69
VGunntwitt
p483
sg71
Nsg72
Nsg73
VThe Panic
p484
sg74
Nsg75
Nsg76
I175584371
sg77
Nsbasg33
Nsg34
Nsg35
I644238954485653504
sg36
S'@Gunntwitt vicki gardner of the smith mountain lake regional chamber of commerce was also injured in the shooting'
p485
sg38
I00
sg39
Ven
p486
sg41
g270
sg78
I0
sg79
V<a href="https://twitter.com/feffernert" rel="nofollow">sausal</a>
p487
sg81
(lp488
sg76
I644239834018545664
sbag2
(g3
g4
Ntp489
Rp490
(dp491
g8
I0
sg9
Nsg10
Nsg11
(lp492
sg13
I00
sg14
Nsg15
Nsg16
(lp493
sg18
Nsg19
Nsg20
Nsg21
S'Wed Sep 16 20:05:02 +0000 2015'
p494
sg23
Nsg24
Nsg25
Vfeffernert
p495
sg26
Nsg27
I3323459426
sg28
Nsg29
I00
sg30
Nsg31
(lp496
g2
(g42
g4
Ntp497
Rp498
(dp499
g9
Nsg46
Nsg47
Nsg49
Nsg50
Nsg51
Nsg21
Nsg52
Nsg53
Nsg54
Nsg56
Nsg57
Nsg58
Nsg59
Nsg60
Nsg61
Nsg62
Nsg63
Nsg64
Nsg65
Nsg66
Nsg67
Nsg68
Nsg69
Vfeffernert
p500
sg71
Nsg72
Nsg73
VSausal Feffernert
p501
sg74
Nsg75
Nsg76
I3323459426
sg77
Nsbasg33
Nsg34
Nsg35
I644239834018545664
sg36
S"@feffernert I deleted the periscope. was something said that I'm not remembering?  Sorry I'm just not at all sure what you're talking about"
p502
sg38
I00
sg39
Ven
p503
sg41
g423
sg78
I0
sg79
V<a href="http://twitter.com/download/iphone" rel="nofollow">Twitter for iPhone</a>
p504
sg81
(lp505
sg76
I644240597222588416
sbag2
(g3
g4
Ntp506
Rp507
(dp508
g8
I0
sg9
Nsg10
Nsg11
(lp509
sg13
I00
sg14
Nsg15
Nsg16
(lp510
sg18
Nsg19
Nsg20
Nsg21
S'Wed Sep 16 20:07:21 +0000 2015'
p511
sg23
Nsg24
Nsg25
VGunntwitt
p512
sg26
Nsg27
I175584371
sg28
Nsg29
I00
sg30
Nsg31
(lp513
g2
(g42
g4
Ntp514
Rp515
(dp516
g9
Nsg46
Nsg47
Nsg49
Nsg50
Nsg51
Nsg21
Nsg52
Nsg53
Nsg54
Nsg56
Nsg57
Nsg58
Nsg59
Nsg60
Nsg61
Nsg62
Nsg63
Nsg64
Nsg65
Nsg66
Nsg67
Nsg68
Nsg69
VGunntwitt
p517
sg71
Nsg72
Nsg73
VThe Panic
p518
sg74
Nsg75
Nsg76
I175584371
sg77
Nsbasg33
Nsg34
Nsg35
I644240597222588416
sg36
S'@Gunntwitt smith wrote jim would work how'
p519
sg38
I00
sg39
Ven
p520
sg41
g270
sg78
I0
sg79
V<a href="https://twitter.com/feffernert" rel="nofollow">sausal</a>
p521
sg81
(lp522
sg76
I644241180008443904
sbag2
(g3
g4
Ntp523
Rp524
(dp525
g8
I0
sg9
Nsg10
Nsg11
(lp526
sg13
I00
sg14
Nsg15
Nsg16
(lp527
sg18
Nsg19
Nsg20
Nsg21
S'Wed Sep 16 20:10:02 +0000 2015'
p528
sg23
Nsg24
Nsg25
Vfeffernert
p529
sg26
Nsg27
I3323459426
sg28
Nsg29
I00
sg30
Nsg31
(lp530
g2
(g42
g4
Ntp531
Rp532
(dp533
g9
Nsg46
Nsg47
Nsg49
Nsg50
Nsg51
Nsg21
Nsg52
Nsg53
Nsg54
Nsg56
Nsg57
Nsg58
Nsg59
Nsg60
Nsg61
Nsg62
Nsg63
Nsg64
Nsg65
Nsg66
Nsg67
Nsg68
Nsg69
Vfeffernert
p534
sg71
Nsg72
Nsg73
VSausal Feffernert
p535
sg74
Nsg75
Nsg76
I3323459426
sg77
Nsbasg33
Nsg34
Nsg35
I644241180008443904
sg36
S"@feffernert yeh... That doesn't clear anything up, but thanks."
p536
sg38
I00
sg39
Ven
p537
sg41
g423
sg78
I0
sg79
V<a href="http://twitter.com/download/iphone" rel="nofollow">Twitter for iPhone</a>
p538
sg81
(lp539
sg76
I644241856952430592
sbag2
(g3
g4
Ntp540
Rp541
(dp542
g8
I0
sg9
Nsg10
Nsg11
(lp543
sg13
I00
sg14
Nsg15
Nsg16
(lp544
sg18
Nsg19
Nsg20
Nsg21
S'Wed Sep 16 20:10:50 +0000 2015'
p545
sg23
Nsg24
Nsg25
VGunntwitt
p546
sg26
Nsg27
I175584371
sg28
Nsg29
I00
sg30
Nsg31
(lp547
g2
(g42
g4
Ntp548
Rp549
(dp550
g9
Nsg46
Nsg47
Nsg49
Nsg50
Nsg51
Nsg21
Nsg52
Nsg53
Nsg54
Nsg56
Nsg57
Nsg58
Nsg59
Nsg60
Nsg61
Nsg62
Nsg63
Nsg64
Nsg65
Nsg66
Nsg67
Nsg68
Nsg69
VGunntwitt
p551
sg71
Nsg72
Nsg73
VThe Panic
p552
sg74
Nsg75
Nsg76
I175584371
sg77
Nsbasg33
Nsg34
Nsg35
I644241856952430592
sg36
S'@Gunntwitt a year seminar helps which with clearing the debris from his property on us, diaz has lived where since 1961'
p553
sg38
I00
sg39
Ven
p554
sg41
g270
sg78
I0
sg79
V<a href="https://twitter.com/feffernert" rel="nofollow">sausal</a>
p555
sg81
(lp556
sg76
I644242055330291713
sbag2
(g3
g4
Ntp557
Rp558
(dp559
g8
I0
sg9
Nsg10
Nsg11
(lp560
sg13
I00
sg14
Nsg15
Nsg16
(lp561
sg18
Nsg19
Nsg20
Nsg21
S'Wed Sep 16 20:12:13 +0000 2015'
p562
sg23
Nsg24
Nsg25
Vfeffernert
p563
sg26
Nsg27
I3323459426
sg28
Nsg29
I00
sg30
Nsg31
(lp564
g2
(g42
g4
Ntp565
Rp566
(dp567
g9
Nsg46
Nsg47
Nsg49
Nsg50
Nsg51
Nsg21
Nsg52
Nsg53
Nsg54
Nsg56
Nsg57
Nsg58
Nsg59
Nsg60
Nsg61
Nsg62
Nsg63
Nsg64
Nsg65
Nsg66
Nsg67
Nsg68
Nsg69
Vfeffernert
p568
sg71
Nsg72
Nsg73
VSausal Feffernert
p569
sg74
Nsg75
Nsg76
I3323459426
sg77
Nsbasg33
Nsg34
Nsg35
I644242055330291713
sg36
S"@feffernert I think you have me confused with someone else. I have no clue what you're talking about dude"
p570
sg38
I00
sg39
Ven
p571
sg41
g423
sg78
I0
sg79
V<a href="http://twitter.com/download/iphone" rel="nofollow">Twitter for iPhone</a>
p572
sg81
(lp573
sg76
I644242404405571584
sbag2
(g3
g4
Ntp574
Rp575
(dp576
g8
I0
sg9
Nsg10
Nsg11
(lp577
sg13
I00
sg14
Nsg15
Nsg16
(lp578
sg18
Nsg19
Nsg20
Nsg21
S'Wed Sep 16 20:16:59 +0000 2015'
p579
sg23
Nsg24
Nsg25
VGunntwitt
p580
sg26
Nsg27
I175584371
sg28
Nsg29
I00
sg30
Nsg31
(lp581
g2
(g42
g4
Ntp582
Rp583
(dp584
g9
Nsg46
Nsg47
Nsg49
Nsg50
Nsg51
Nsg21
Nsg52
Nsg53
Nsg54
Nsg56
Nsg57
Nsg58
Nsg59
Nsg60
Nsg61
Nsg62
Nsg63
Nsg64
Nsg65
Nsg66
Nsg67
Nsg68
Nsg69
VGunntwitt
p585
sg71
Nsg72
Nsg73
VThe Panic
p586
sg74
Nsg75
Nsg76
I175584371
sg77
Nsbasg33
Nsg34
Nsg35
I644242404405571584
sg36
S'@Gunntwitt hillary apparently also has a damn clue'
p587
sg38
I00
sg39
Ven
p588
sg41
g270
sg78
I1
sg79
V<a href="https://twitter.com/feffernert" rel="nofollow">sausal</a>
p589
sg81
(lp590
sg76
I644243604257398784
sbaa(lp591
g2
(g3
g4
Ntp592
Rp593
(dp594
g8
I0
sg9
Nsg10
Nsg11
(lp595
sg13
I00
sg14
Nsg15
Nsg16
(lp596
sg18
Nsg19
Nsg20
Nsg21
S'Wed Sep 16 04:43:32 +0000 2015'
p597
sg23
Nsg24
Nsg25
VTiaraBoom1
p598
sg26
Nsg27
I2489360282
sg28
Nsg29
I00
sg30
Nsg31
(lp599
g2
(g42
g4
Ntp600
Rp601
(dp602
g9
Nsg46
Nsg47
Nsg49
Nsg50
Nsg51
Nsg21
Nsg52
Nsg53
Nsg54
Nsg56
Nsg57
Nsg58
Nsg59
Nsg60
Nsg61
Nsg62
Nsg63
Nsg64
Nsg65
Nsg66
Nsg67
Nsg68
Nsg69
VTiaraBoom1
p603
sg71
Nsg72
Nsg73
VTiara Boom
p604
sg74
Nsg75
Nsg76
I2489360282
sg77
Nsbasg33
Nsg34
Nsg35
Nsg36
S'@TiaraBoom1 Tiara! What up, wise one?'
p605
sg38
I00
sg39
Ven
p606
sg41
g2
(g42
g4
Ntp607
Rp608
(dp609
g9
Nsg46
Nsg47
S'en'
p610
sg49
Nsg50
I1507
sg51
Nsg21
Nsg52
Nsg53
Nsg54
S'https://pbs.twimg.com/profile_images/619157153253863424/wYTtIt46_normal.jpg'
p611
sg56
I530
sg57
Nsg58
Nsg59
Nsg60
Nsg61
Nsg62
Nsg63
Nsg64
Nsg65
Nsg66
Nsg67
Nsg68
Nsg69
S'eliseramsay'
p612
sg71
Nsg72
Nsg73
Nsg74
Nsg75
Nsg76
I35841964
sg77
Nsbsg78
I0
sg79
V<a href="http://twitter.com" rel="nofollow">Twitter Web Client</a>
p613
sg81
(lp614
sg76
I644008693311213568
sbag2
(g3
g4
Ntp615
Rp616
(dp617
g8
I0
sg9
Nsg10
Nsg11
(lp618
sg13
I00
sg14
Nsg15
Nsg16
(lp619
sg18
Nsg19
Nsg20
Nsg21
S'Wed Sep 16 04:44:36 +0000 2015'
p620
sg23
Nsg24
Nsg25
Veliseramsay
p621
sg26
Nsg27
I35841964
sg28
Nsg29
I00
sg30
Nsg31
(lp622
g2
(g42
g4
Ntp623
Rp624
(dp625
g9
Nsg46
Nsg47
Nsg49
Nsg50
Nsg51
Nsg21
Nsg52
Nsg53
Nsg54
Nsg56
Nsg57
Nsg58
Nsg59
Nsg60
Nsg61
Nsg62
Nsg63
Nsg64
Nsg65
Nsg66
Nsg67
Nsg68
Nsg69
Veliseramsay
p626
sg71
Nsg72
Nsg73
VElise Ramsay
p627
sg74
Nsg75
Nsg76
I35841964
sg77
Nsbasg33
Nsg34
Nsg35
I644008693311213568
sg36
S'@eliseramsay But imagine if you were suiting us around your wisest tiaras?'
p628
sg38
I00
sg39
Ven
p629
sg41
g44
sg78
I0
sg79
V<a href="https://google.com" rel="nofollow">TiaraBoomReadOnly</a>
p630
sg81
(lp631
sg76
I644008964544266240
sbag2
(g3
g4
Ntp632
Rp633
(dp634
g8
I0
sg9
Nsg10
Nsg11
(lp635
sg13
I00
sg14
Nsg15
Nsg16
(lp636
sg18
Nsg19
Nsg20
Nsg21
S'Wed Sep 16 04:45:28 +0000 2015'
p637
sg23
Nsg24
Nsg25
VTiaraBoom1
p638
sg26
Nsg27
I2489360282
sg28
Nsg29
I00
sg30
Nsg31
(lp639
g2
(g42
g4
Ntp640
Rp641
(dp642
g9
Nsg46
Nsg47
Nsg49
Nsg50
Nsg51
Nsg21
Nsg52
Nsg53
Nsg54
Nsg56
Nsg57
Nsg58
Nsg59
Nsg60
Nsg61
Nsg62
Nsg63
Nsg64
Nsg65
Nsg66
Nsg67
Nsg68
Nsg69
VTiaraBoom1
p643
sg71
Nsg72
Nsg73
VTiara Boom
p644
sg74
Nsg75
Nsg76
I2489360282
sg77
Nsbasg33
Nsg34
Nsg35
I644008964544266240
sg36
S'@TiaraBoom1 That sounds rather nice. I can see Gandalf in a wise tiara.'
p645
sg38
I00
sg39
Ven
p646
sg41
g608
sg78
I0
sg79
V<a href="https://about.twitter.com/products/tweetdeck" rel="nofollow">TweetDeck</a>
p647
sg81
(lp648
sg76
I644009180110716928
sbag2
(g3
g4
Ntp649
Rp650
(dp651
g8
I1
sg9
Nsg10
Nsg11
(lp652
sg13
I00
sg14
Nsg15
Nsg16
(lp653
sg18
Nsg19
Nsg20
Nsg21
S'Wed Sep 16 04:48:41 +0000 2015'
p654
sg23
Nsg24
Nsg25
Veliseramsay
p655
sg26
Nsg27
I35841964
sg28
Nsg29
I00
sg30
Nsg31
(lp656
g2
(g42
g4
Ntp657
Rp658
(dp659
g9
Nsg46
Nsg47
Nsg49
Nsg50
Nsg51
Nsg21
Nsg52
Nsg53
Nsg54
Nsg56
Nsg57
Nsg58
Nsg59
Nsg60
Nsg61
Nsg62
Nsg63
Nsg64
Nsg65
Nsg66
Nsg67
Nsg68
Nsg69
Veliseramsay
p660
sg71
Nsg72
Nsg73
VElise Ramsay
p661
sg74
Nsg75
Nsg76
I35841964
sg77
Nsbasg33
Nsg34
Nsg35
I644009180110716928
sg36
S'@eliseramsay This sound has represented those tiaras.'
p662
sg38
I00
sg39
Ven
p663
sg41
g44
sg78
I0
sg79
V<a href="https://google.com" rel="nofollow">TiaraBoomReadOnly</a>
p664
sg81
(lp665
sg76
I644009990248751104
sbaa(lp666
g2
(g3
g4
Ntp667
Rp668
(dp669
g8
I0
sg9
Nsg10
Nsg11
(lp670
sg13
I00
sg14
Nsg15
Nsg16
(lp671
sg18
Nsg19
Nsg20
Nsg21
S'Wed Sep 16 03:05:59 +0000 2015'
p672
sg23
Nsg24
Nsg25
Nsg26
Nsg27
Nsg28
Nsg29
I00
sg30
Nsg31
(lp673
sg33
Nsg34
Nsg35
Nsg36
S"Weren't you steadier than me or am I happier and cooler than myself?"
p674
sg38
I00
sg39
Ven
p675
sg41
g44
sg78
I0
sg79
V<a href="https://google.com" rel="nofollow">TiaraBoomReadOnly</a>
p676
sg81
(lp677
sg76
I643984143387336705
sbag2
(g3
g4
Ntp678
Rp679
(dp680
g8
I0
sg9
Nsg10
Nsg11
(lp681
sg13
I00
sg14
Nsg15
Nsg16
(lp682
sg18
Nsg19
Nsg20
Nsg21
S'Wed Sep 16 04:04:48 +0000 2015'
p683
sg23
Nsg24
Nsg25
VTiaraBoom1
p684
sg26
Nsg27
I2489360282
sg28
Nsg29
I00
sg30
Nsg31
(lp685
g2
(g42
g4
Ntp686
Rp687
(dp688
g9
Nsg46
Nsg47
Nsg49
Nsg50
Nsg51
Nsg21
Nsg52
Nsg53
Nsg54
Nsg56
Nsg57
Nsg58
Nsg59
Nsg60
Nsg61
Nsg62
Nsg63
Nsg64
Nsg65
Nsg66
Nsg67
Nsg68
Nsg69
VTiaraBoom1
p689
sg71
Nsg72
Nsg73
VTiara Boom
p690
sg74
Nsg75
Nsg76
I2489360282
sg77
Nsbasg33
Nsg34
Nsg35
I643984143387336705
sg36
S"@TiaraBoom1 you're drunk tiara"
p691
sg38
I00
sg39
Ven
p692
sg41
g2
(g42
g4
Ntp693
Rp694
(dp695
g9
Nsg46
Nsg47
S'en'
p696
sg49
Nsg50
I87
sg51
Nsg21
Nsg52
Nsg53
Nsg54
S'https://pbs.twimg.com/profile_images/560273367648186368/NCrPuZtV_normal.jpeg'
p697
sg56
I334
sg57
Nsg58
Nsg59
Nsg60
Nsg61
Nsg62
Nsg63
Nsg64
Nsg65
Nsg66
Nsg67
Nsg68
Nsg69
S'theproselytizer'
p698
sg71
Nsg72
Nsg73
Nsg74
Nsg75
Nsg76
I345585364
sg77
Nsbsg78
I0
sg79
V<a href="http://twitter.com" rel="nofollow">Twitter Web Client</a>
p699
sg81
(lp700
sg76
I643998946793095168
sbag2
(g3
g4
Ntp701
Rp702
(dp703
g8
I0
sg9
Nsg10
Nsg11
(lp704
sg13
I00
sg14
Nsg15
Nsg16
(lp705
sg18
Nsg19
Nsg20
Nsg21
S'Wed Sep 16 04:06:02 +0000 2015'
p706
sg23
Nsg24
Nsg25
Vtheproselytizer
p707
sg26
Nsg27
I345585364
sg28
Nsg29
I00
sg30
Nsg31
(lp708
g2
(g42
g4
Ntp709
Rp710
(dp711
g9
Nsg46
Nsg47
Nsg49
Nsg50
Nsg51
Nsg21
Nsg52
Nsg53
Nsg54
Nsg56
Nsg57
Nsg58
Nsg59
Nsg60
Nsg61
Nsg62
Nsg63
Nsg64
Nsg65
Nsg66
Nsg67
Nsg68
Nsg69
Vtheproselytizer
p712
sg71
Nsg72
Nsg73
Vfather tom
p713
sg74
Nsg75
Nsg76
I345585364
sg77
Nsbasg33
Nsg34
Nsg35
I643998946793095168
sg36
S'@theproselytizer If I were drunker than Kate and readier than you, you would maybe be obliterating that tiara-listener without her remark.'
p714
sg38
I00
sg39
Ven
p715
sg41
g44
sg78
I0
sg79
V<a href="https://google.com" rel="nofollow">TiaraBoomReadOnly</a>
p716
sg81
(lp717
sg76
I643999258383773696
sbaa(lp718
g2
(g3
g4
Ntp719
Rp720
(dp721
g8
I0
sg9
Nsg10
Nsg11
(lp722
sg13
I00
sg14
Nsg15
Nsg16
(lp723
sg18
Nsg19
Nsg20
Nsg21
S'Wed Sep 16 01:29:52 +0000 2015'
p724
sg23
Nsg24
Nsg25
Nsg26
Nsg27
Nsg28
Nsg29
I00
sg30
Nsg31
(lp725
sg33
Nsg34
Nsg35
Nsg36
S'i want you back no flex \xf0\x9f\x92\xaf'
p726
sg38
I00
sg39
Ven
p727
sg41
g2
(g42
g4
Ntp728
Rp729
(dp730
g9
Nsg46
Nsg47
S'en'
p731
sg49
Nsg50
I221
sg51
Nsg21
Nsg52
Nsg53
Nsg54
S'https://pbs.twimg.com/profile_images/632639364460335105/OLtj1WPT_normal.jpg'
p732
sg56
I352
sg57
Nsg58
Nsg59
Nsg60
Nsg61
Nsg62
Nsg63
Nsg64
Nsg65
Nsg66
Nsg67
Nsg68
Nsg69
S'LoveeMeForevaa'
p733
sg71
Nsg72
Nsg73
Nsg74
Nsg75
Nsg76
I94766262
sg77
Nsbsg78
I0
sg79
V<a href="http://twitter.com/download/android" rel="nofollow">Twitter for Android</a>
p734
sg81
(lp735
sg76
I643959958107635712
sbag2
(g3
g4
Ntp736
Rp737
(dp738
g8
I0
sg9
Nsg10
Nsg11
(lp739
sg13
I00
sg14
Nsg15
Nsg16
(lp740
sg18
Nsg19
Nsg20
Nsg21
S'Wed Sep 16 13:57:25 +0000 2015'
p741
sg23
Nsg24
Nsg25
VLoveeMeForevaa
p742
sg26
Nsg27
I94766262
sg28
Nsg29
I00
sg30
Nsg31
(lp743
g2
(g42
g4
Ntp744
Rp745
(dp746
g9
Nsg46
Nsg47
Nsg49
Nsg50
Nsg51
Nsg21
Nsg52
Nsg53
Nsg54
Nsg56
Nsg57
Nsg58
Nsg59
Nsg60
Nsg61
Nsg62
Nsg63
Nsg64
Nsg65
Nsg66
Nsg67
Nsg68
Nsg69
VLoveeMeForevaa
p747
sg71
Nsg72
Nsg73
VA N G E L\u2728
p748
sg74
Nsg75
Nsg76
I94766262
sg77
Nsbasg33
Nsg34
Nsg35
I643959958107635712
sg36
S'@LoveeMeForevaa onika flexes killer curves, and gives us to the song, in our june/july issue'
p749
sg38
I00
sg39
Ven
p750
sg41
g2
(g42
g4
Ntp751
Rp752
(dp753
g9
Nsg46
Nsg47
S'en'
p754
sg49
Nsg50
I245
sg51
Nsg21
Nsg52
Nsg53
Nsg54
S'https://pbs.twimg.com/profile_images/534238461151035392/Kjrl-ruA_normal.jpeg'
p755
sg56
I508
sg57
Nsg58
Nsg59
Nsg60
Nsg61
Nsg62
Nsg63
Nsg64
Nsg65
Nsg66
Nsg67
Nsg68
Nsg69
S'AntonioBacusAmI'
p756
sg71
Nsg72
Nsg73
Nsg74
Nsg75
Nsg76
I2889400057
sg77
Nsbsg78
I0
sg79
V<a href="http://www.google.com" rel="nofollow">AntonioBacusTweets</a>
p757
sg81
(lp758
sg76
I644148084616785920
sbag2
(g3
g4
Ntp759
Rp760
(dp761
g8
I0
sg9
Nsg10
Nsg11
(lp762
sg13
I00
sg14
Nsg15
Nsg16
(lp763
sg18
Nsg19
Nsg20
Nsg21
S'Wed Sep 16 22:17:03 +0000 2015'
p764
sg23
Nsg24
Nsg25
VAntonioBacusAmI
p765
sg26
Nsg27
I2889400057
sg28
Nsg29
I00
sg30
Nsg31
(lp766
g2
(g42
g4
Ntp767
Rp768
(dp769
g9
Nsg46
Nsg47
Nsg49
Nsg50
Nsg51
Nsg21
Nsg52
Nsg53
Nsg54
Nsg56
Nsg57
Nsg58
Nsg59
Nsg60
Nsg61
Nsg62
Nsg63
Nsg64
Nsg65
Nsg66
Nsg67
Nsg68
Nsg69
VAntonioBacusAmI
p770
sg71
Nsg72
Nsg73
VAntonio Bacus
p771
sg74
Nsg75
Nsg76
I2889400057
sg77
Nsbasg33
Nsg34
Nsg35
I644148084616785920
sg36
S'@AntonioBacusAmI ok'
p772
sg38
I00
sg39
Vund
p773
sg41
g729
sg78
I0
sg79
V<a href="http://twitter.com/download/android" rel="nofollow">Twitter for Android</a>
p774
sg81
(lp775
sg76
I644273819021111296
sbag2
(g3
g4
Ntp776
Rp777
(dp778
g8
I0
sg9
Nsg10
Nsg11
(lp779
sg13
I00
sg14
Nsg15
Nsg16
(lp780
sg18
Nsg19
Nsg20
Nsg21
S'Wed Sep 16 22:18:01 +0000 2015'
p781
sg23
Nsg24
Nsg25
VLoveeMeForevaa
p782
sg26
Nsg27
I94766262
sg28
Nsg29
I00
sg30
Nsg31
(lp783
g2
(g42
g4
Ntp784
Rp785
(dp786
g9
Nsg46
Nsg47
Nsg49
Nsg50
Nsg51
Nsg21
Nsg52
Nsg53
Nsg54
Nsg56
Nsg57
Nsg58
Nsg59
Nsg60
Nsg61
Nsg62
Nsg63
Nsg64
Nsg65
Nsg66
Nsg67
Nsg68
Nsg69
VLoveeMeForevaa
p787
sg71
Nsg72
Nsg73
VA N G E L\u2728
p788
sg74
Nsg75
Nsg76
I94766262
sg77
Nsbasg33
Nsg34
Nsg35
I644273819021111296
sg36
S'@LoveeMeForevaa arrest warrant issued for suspect in washington dc quadruple it'
p789
sg38
I00
sg39
Ven
p790
sg41
g752
sg78
I0
sg79
V<a href="http://www.google.com" rel="nofollow">AntonioBacusTweets</a>
p791
sg81
(lp792
sg76
I644274062756220929
sbaa(lp793
g2
(g3
g4
Ntp794
Rp795
(dp796
g8
I0
sg9
Nsg10
Nsg11
(lp797
sg13
I00
sg14
Nsg15
Nsg16
(lp798
sg18
(dp799
Vcountry_code
p800
VUS
p801
sVurl
p802
Vhttps://api.twitter.com/1.1/geo/id/44d207663001f00b.json
p803
sVcountry
p804
VUnited States
p805
sVplace_type
p806
Vcity
p807
sVbounding_box
p808
(dp809
Vtype
p810
VPolygon
p811
sVcoordinates
p812
(lp813
(lp814
(lp815
F-111.894548
aF33.306275
aa(lp816
F-111.5805834
aF33.306275
aa(lp817
F-111.5805834
aF33.505234
aa(lp818
F-111.894548
aF33.505234
aaassVcontained_within
p819
(lp820
sVfull_name
p821
VMesa, AZ
p822
sVattributes
p823
(dp824
sVid
p825
V44d207663001f00b
p826
sVname
p827
VMesa
p828
ssg19
Nsg20
Nsg21
S'Tue Sep 15 19:48:18 +0000 2015'
p829
sg23
Nsg24
Nsg25
Nsg26
Nsg27
Nsg28
Nsg29
I00
sg30
Nsg31
(lp830
sg33
Nsg34
Nsg35
Nsg36
S'The only people who fear death are those with regrets!'
p831
sg38
I00
sg39
Ven
p832
sg41
g2
(g42
g4
Ntp833
Rp834
(dp835
g9
Nsg46
Nsg47
S'en'
p836
sg49
Nsg50
I4186
sg51
Nsg21
Nsg52
Nsg53
Nsg54
S'https://pbs.twimg.com/profile_images/493491912179859456/XeehzUaZ_normal.jpeg'
p837
sg56
I4585
sg57
Nsg58
Nsg59
Nsg60
Nsg61
Nsg62
Nsg63
Nsg64
Nsg65
Nsg66
Nsg67
Nsg68
Nsg69
S'bojorquezadrian'
p838
sg71
Nsg72
Nsg73
Nsg74
Nsg75
Nsg76
I56049073
sg77
Nsbsg78
I0
sg79
V<a href="http://twitter.com/download/iphone" rel="nofollow">Twitter for iPhone</a>
p839
sg81
(lp840
sg76
I643873996715503624
sbag2
(g3
g4
Ntp841
Rp842
(dp843
g8
I0
sg9
Nsg10
Nsg11
(lp844
sg13
I00
sg14
Nsg15
Nsg16
(lp845
sg18
Nsg19
Nsg20
Nsg21
S'Tue Sep 15 23:43:10 +0000 2015'
p846
sg23
Nsg24
Nsg25
Vbojorquezadrian
p847
sg26
Nsg27
I56049073
sg28
Nsg29
I00
sg30
Nsg31
(lp848
g2
(g42
g4
Ntp849
Rp850
(dp851
g9
Nsg46
Nsg47
Nsg49
Nsg50
Nsg51
Nsg21
Nsg52
Nsg53
Nsg54
Nsg56
Nsg57
Nsg58
Nsg59
Nsg60
Nsg61
Nsg62
Nsg63
Nsg64
Nsg65
Nsg66
Nsg67
Nsg68
Nsg69
Vbojorquezadrian
p852
sg71
Nsg72
Nsg73
VAdrian Bojorquez
p853
sg74
Nsg75
Nsg76
I56049073
sg77
Nsbasg33
Nsg34
Nsg35
I643873996715503624
sg36
S'@bojorquezadrian the radio host around meanwhile began rattling, and she said they you feared at'
p854
sg38
I00
sg39
Ven
p855
sg41
g752
sg78
I0
sg79
V<a href="http://www.google.com" rel="nofollow">AntonioBacusTweets</a>
p856
sg81
(lp857
sg76
I643933103539359744
sbag2
(g3
g4
Ntp858
Rp859
(dp860
g8
I0
sg9
Nsg10
Nsg11
(lp861
sg13
I00
sg14
Nsg15
Nsg16
(lp862
sg18
(dp863
Vcountry_code
p864
VUS
p865
sVurl
p866
Vhttps://api.twitter.com/1.1/geo/id/44d207663001f00b.json
p867
sVcountry
p868
VUnited States
p869
sVplace_type
p870
Vcity
p871
sVbounding_box
p872
(dp873
Vtype
p874
VPolygon
p875
sVcoordinates
p876
(lp877
(lp878
(lp879
F-111.894548
aF33.306275
aa(lp880
F-111.5805834
aF33.306275
aa(lp881
F-111.5805834
aF33.505234
aa(lp882
F-111.894548
aF33.505234
aaassVcontained_within
p883
(lp884
sVfull_name
p885
VMesa, AZ
p886
sVattributes
p887
(dp888
sVid
p889
V44d207663001f00b
p890
sVname
p891
VMesa
p892
ssg19
Nsg20
Nsg21
S'Thu Sep 17 15:42:25 +0000 2015'
p893
sg23
Nsg24
Nsg25
VAntonioBacusAmI
p894
sg26
Nsg27
I2889400057
sg28
Nsg29
I00
sg30
Nsg31
(lp895
g2
(g42
g4
Ntp896
Rp897
(dp898
g9
Nsg46
Nsg47
Nsg49
Nsg50
Nsg51
Nsg21
Nsg52
Nsg53
Nsg54
Nsg56
Nsg57
Nsg58
Nsg59
Nsg60
Nsg61
Nsg62
Nsg63
Nsg64
Nsg65
Nsg66
Nsg67
Nsg68
Nsg69
VAntonioBacusAmI
p899
sg71
Nsg72
Nsg73
VAntonio Bacus
p900
sg74
Nsg75
Nsg76
I2889400057
sg77
Nsbasg33
Nsg34
Nsg35
I643933103539359744
sg36
S'@AntonioBacusAmI check out my YouTube videos!'
p901
sg38
I00
sg39
Ven
p902
sg41
g834
sg78
I0
sg79
V<a href="http://twitter.com/download/iphone" rel="nofollow">Twitter for iPhone</a>
p903
sg81
(lp904
sg76
I644536895024697344
sbag2
(g3
g4
Ntp905
Rp906
(dp907
g8
I0
sg9
Nsg10
Nsg11
(lp908
sg13
I00
sg14
Nsg15
Nsg16
(lp909
sg18
Nsg19
Nsg20
Nsg21
S'Fri Sep 18 03:27:50 +0000 2015'
p910
sg23
Nsg24
Nsg25
Vbojorquezadrian
p911
sg26
Nsg27
I56049073
sg28
Nsg29
I00
sg30
Nsg31
(lp912
g2
(g42
g4
Ntp913
Rp914
(dp915
g9
Nsg46
Nsg47
Nsg49
Nsg50
Nsg51
Nsg21
Nsg52
Nsg53
Nsg54
Nsg56
Nsg57
Nsg58
Nsg59
Nsg60
Nsg61
Nsg62
Nsg63
Nsg64
Nsg65
Nsg66
Nsg67
Nsg68
Nsg69
Vbojorquezadrian
p916
sg71
Nsg72
Nsg73
VAdrian Bojorquez
p917
sg74
Nsg75
Nsg76
I56049073
sg77
Nsbasg33
Nsg34
Nsg35
I644536895024697344
sg36
S'@bojorquezadrian i began contract negotiations'
p918
sg38
I00
sg39
Ven
p919
sg41
g752
sg78
I0
sg79
V<a href="http://www.google.com" rel="nofollow">AntonioBacusTweets</a>
p920
sg81
(lp921
sg76
I644714421072171008
sbaa(lp922
g2
(g3
g4
Ntp923
Rp924
(dp925
g8
I0
sg9
Nsg10
Nsg11
(lp926
g2
(g322
g4
Ntp927
Rp928
(dp929
g326
VMesh
p930
sbasg13
I00
sg14
Nsg15
Nsg16
(lp931
sg18
Nsg19
Nsg20
Nsg21
S'Tue Sep 15 18:23:30 +0000 2015'
p932
sg23
Nsg24
Nsg25
Nsg26
Nsg27
Nsg28
Nsg29
I00
sg30
Nsg31
(lp933
sg33
Nsg34
Nsg35
Nsg36
S'#Mesh&amp;Auto-Immune disease http://t.co/Z9qsXyKYZJ'
p934
sg38
I00
sg39
Ven
p935
sg41
g2
(g42
g4
Ntp936
Rp937
(dp938
g9
Nsg46
Nsg47
S'en'
p939
sg49
Nsg50
I250
sg51
Nsg21
Nsg52
Nsg53
Nsg54
S'https://pbs.twimg.com/profile_images/515193637454364672/s7ZuwzRq_normal.jpeg'
p940
sg56
I430
sg57
Nsg58
Nsg59
Nsg60
Nsg61
Nsg62
Nsg63
Nsg64
Nsg65
Nsg66
Nsg67
Nsg68
Nsg69
S'tarajeanne727'
p941
sg71
Nsg72
Nsg73
Nsg74
Nsg75
Nsg76
I310290883
sg77
Nsbsg78
I1
sg79
V<a href="http://twitter.com/#!/download/ipad" rel="nofollow">Twitter for iPad</a>
p942
sg81
(lp943
g2
(g430
g4
Ntp944
Rp945
(dp946
g434
Vhttp://t.co/Z9qsXyKYZJ
p947
sg436
Vhttp://pelvicmeshownersguide.com/2015/08/the-pelvis-in-flames-autoimmune-diseases-and-pelvic-mesh/
p948
sbasg76
I643852657082433537
sbag2
(g3
g4
Ntp949
Rp950
(dp951
g8
I0
sg9
Nsg10
Nsg11
(lp952
sg13
I00
sg14
Nsg15
Nsg16
(lp953
sg18
Nsg19
Nsg20
Nsg21
S'Wed Sep 16 15:41:23 +0000 2015'
p954
sg23
Nsg24
Nsg25
Vtarajeanne727
p955
sg26
Nsg27
I310290883
sg28
Nsg29
I00
sg30
Nsg31
(lp956
g2
(g42
g4
Ntp957
Rp958
(dp959
g9
Nsg46
Nsg47
Nsg49
Nsg50
Nsg51
Nsg21
Nsg52
Nsg53
Nsg54
Nsg56
Nsg57
Nsg58
Nsg59
Nsg60
Nsg61
Nsg62
Nsg63
Nsg64
Nsg65
Nsg66
Nsg67
Nsg68
Nsg69
Vtarajeanne727
p960
sg71
Nsg72
Nsg73
VMe$h, no more
p961
sg74
Nsg75
Nsg76
I310290883
sg77
Nsbasg33
Nsg34
Nsg35
I643852657082433537
sg36
S'@tarajeanne727 sexual biggest themselves, and power a mesh network'
p962
sg38
I00
sg39
Ven
p963
sg41
g2
(g42
g4
Ntp964
Rp965
(dp966
g9
Nsg46
Nsg47
S'en'
p967
sg49
Nsg50
I115
sg51
Nsg21
Nsg52
Nsg53
Nsg54
S'https://pbs.twimg.com/profile_images/536396256520568832/B7bZ-Z4__normal.jpeg'
p968
sg56
I376
sg57
Nsg58
Nsg59
Nsg60
Nsg61
Nsg62
Nsg63
Nsg64
Nsg65
Nsg66
Nsg67
Nsg68
Nsg69
S'VanTheWinterer'
p969
sg71
Nsg72
Nsg73
Nsg74
Nsg75
Nsg76
I2889323126
sg77
Nsbsg78
I0
sg79
V<a href="https://google.com" rel="nofollow">VanguardWinterbottom</a>
p970
sg81
(lp971
sg76
I644174245912645632
sbag2
(g3
g4
Ntp972
Rp973
(dp974
g8
I0
sg9
Nsg10
Nsg11
(lp975
sg13
I00
sg14
Nsg15
Nsg16
(lp976
sg18
Nsg19
Nsg20
Nsg21
S'Thu Sep 17 03:10:16 +0000 2015'
p977
sg23
Nsg24
Nsg25
VVanTheWinterer
p978
sg26
Nsg27
I2889323126
sg28
Nsg29
I00
sg30
Nsg31
(lp979
g2
(g42
g4
Ntp980
Rp981
(dp982
g9
Nsg46
Nsg47
Nsg49
Nsg50
Nsg51
Nsg21
Nsg52
Nsg53
Nsg54
Nsg56
Nsg57
Nsg58
Nsg59
Nsg60
Nsg61
Nsg62
Nsg63
Nsg64
Nsg65
Nsg66
Nsg67
Nsg68
Nsg69
VVanTheWinterer
p983
sg71
Nsg72
Nsg73
VVanguardWinterbottom
p984
sg74
Nsg75
Nsg76
I2889323126
sg77
Nsbasg33
Nsg34
Nsg35
I644174245912645632
sg36
S'@VanTheWinterer love the name, but did not understand your comment.  Do you care to explain to this dense woman?  If not, no worries .'
p985
sg38
I00
sg39
Ven
p986
sg41
g937
sg78
I0
sg79
V<a href="http://twitter.com/#!/download/ipad" rel="nofollow">Twitter for iPad</a>
p987
sg81
(lp988
sg76
I644347610426380288
sbag2
(g3
g4
Ntp989
Rp990
(dp991
g8
I0
sg9
Nsg10
Nsg11
(lp992
sg13
I00
sg14
Nsg15
Nsg16
(lp993
sg18
Nsg19
Nsg20
Nsg21
S'Thu Sep 17 03:45:05 +0000 2015'
p994
sg23
Nsg24
Nsg25
Vtarajeanne727
p995
sg26
Nsg27
I310290883
sg28
Nsg29
I00
sg30
Nsg31
(lp996
g2
(g42
g4
Ntp997
Rp998
(dp999
g9
Nsg46
Nsg47
Nsg49
Nsg50
Nsg51
Nsg21
Nsg52
Nsg53
Nsg54
Nsg56
Nsg57
Nsg58
Nsg59
Nsg60
Nsg61
Nsg62
Nsg63
Nsg64
Nsg65
Nsg66
Nsg67
Nsg68
Nsg69
Vtarajeanne727
p1000
sg71
Nsg72
Nsg73
VMe$h, no more
p1001
sg74
Nsg75
Nsg76
I310290883
sg77
Nsbasg33
Nsg34
Nsg35
I644347610426380288
sg36
S'@tarajeanne727 this is a respectable gay bar for white people, who do not wear high mesh panties pumps, and wear pop to be a queen'
p1002
sg38
I00
sg39
Ven
p1003
sg41
g965
sg78
I0
sg79
V<a href="https://google.com" rel="nofollow">VanguardWinterbottom</a>
p1004
sg81
(lp1005
sg76
I644356373245882369
sbag2
(g3
g4
Ntp1006
Rp1007
(dp1008
g8
I0
sg9
Nsg10
Nsg11
(lp1009
sg13
I00
sg14
Nsg15
Nsg16
(lp1010
sg18
Nsg19
Nsg20
Nsg21
S'Thu Sep 17 13:36:08 +0000 2015'
p1011
sg23
Nsg24
Nsg25
VVanTheWinterer
p1012
sg26
Nsg27
I2889323126
sg28
Nsg29
I00
sg30
Nsg31
(lp1013
g2
(g42
g4
Ntp1014
Rp1015
(dp1016
g9
Nsg46
Nsg47
Nsg49
Nsg50
Nsg51
Nsg21
Nsg52
Nsg53
Nsg54
Nsg56
Nsg57
Nsg58
Nsg59
Nsg60
Nsg61
Nsg62
Nsg63
Nsg64
Nsg65
Nsg66
Nsg67
Nsg68
Nsg69
VVanTheWinterer
p1017
sg71
Nsg72
Nsg73
VVanguardWinterbottom
p1018
sg74
Nsg75
Nsg76
I2889323126
sg77
Nsbasg33
Nsg34
Nsg35
I644356373245882369
sg36
S'@VanTheWinterer oh, okay. What does that have to do with my initial post, concerning vaginal mesh injured women?'
p1019
sg38
I00
sg39
Ven
p1020
sg41
g937
sg78
I0
sg79
V<a href="http://twitter.com/#!/download/ipad" rel="nofollow">Twitter for iPad</a>
p1021
sg81
(lp1022
sg76
I644505114892439553
sbag2
(g3
g4
Ntp1023
Rp1024
(dp1025
g8
I0
sg9
Nsg10
Nsg11
(lp1026
sg13
I00
sg14
Nsg15
Nsg16
(lp1027
sg18
Nsg19
Nsg20
Nsg21
S'Fri Sep 18 03:27:27 +0000 2015'
p1028
sg23
Nsg24
Nsg25
Vtarajeanne727
p1029
sg26
Nsg27
I310290883
sg28
Nsg29
I00
sg30
Nsg31
(lp1030
g2
(g42
g4
Ntp1031
Rp1032
(dp1033
g9
Nsg46
Nsg47
Nsg49
Nsg50
Nsg51
Nsg21
Nsg52
Nsg53
Nsg54
Nsg56
Nsg57
Nsg58
Nsg59
Nsg60
Nsg61
Nsg62
Nsg63
Nsg64
Nsg65
Nsg66
Nsg67
Nsg68
Nsg69
Vtarajeanne727
p1034
sg71
Nsg72
Nsg73
VMe$h, no more
p1035
sg74
Nsg75
Nsg76
I310290883
sg77
Nsbasg33
Nsg34
Nsg35
I644505114892439553
sg36
S'@tarajeanne727 san francisco city hall meshed in john dewey, a manifesto who co with patti pierucci, another psychologist, a stingray works'
p1036
sg38
I00
sg39
Ven
p1037
sg41
g965
sg78
I0
sg79
V<a href="https://google.com" rel="nofollow">VanguardWinterbottom</a>
p1038
sg81
(lp1039
sg76
I644714323588190208
sbaa(lp1040
g2
(g3
g4
Ntp1041
Rp1042
(dp1043
g8
I0
sg9
Nsg10
Nsg11
(lp1044
sg13
I00
sg14
Nsg15
Nsg16
(lp1045
sg18
Nsg19
Nsg20
Nsg21
S'Tue Sep 15 08:12:13 +0000 2015'
p1046
sg23
Nsg24
Nsg25
Nsg26
Nsg27
Nsg28
Nsg29
I00
sg30
Nsg31
(lp1047
sg33
Nsg34
Nsg35
Nsg36
S'Finally watching Sherlock S03.\nHave been holding myself back for almost an year now.'
p1048
sg38
I00
sg39
Ven
p1049
sg41
g2
(g42
g4
Ntp1050
Rp1051
(dp1052
g9
Nsg46
Nsg47
S'en'
p1053
sg49
Nsg50
I710
sg51
Nsg21
Nsg52
Nsg53
Nsg54
S'https://pbs.twimg.com/profile_images/629906885873807360/NdaHtRZG_normal.jpg'
p1054
sg56
I142
sg57
Nsg58
Nsg59
Nsg60
Nsg61
Nsg62
Nsg63
Nsg64
Nsg65
Nsg66
Nsg67
Nsg68
Nsg69
S'islejazz'
p1055
sg71
Nsg72
Nsg73
Nsg74
Nsg75
Nsg76
I1954704746
sg77
Nsbsg78
I0
sg79
V<a href="http://twitter.com/download/android" rel="nofollow">Twitter for Android</a>
p1056
sg81
(lp1057
sg76
I643698824297377792
sbag2
(g3
g4
Ntp1058
Rp1059
(dp1060
g8
I0
sg9
Nsg10
Nsg11
(lp1061
sg13
I00
sg14
Nsg15
Nsg16
(lp1062
sg18
Nsg19
Nsg20
Nsg21
S'Tue Sep 15 22:19:12 +0000 2015'
p1063
sg23
Nsg24
Nsg25
Vislejazz
p1064
sg26
Nsg27
I1954704746
sg28
Nsg29
I00
sg30
Nsg31
(lp1065
g2
(g42
g4
Ntp1066
Rp1067
(dp1068
g9
Nsg46
Nsg47
Nsg49
Nsg50
Nsg51
Nsg21
Nsg52
Nsg53
Nsg54
Nsg56
Nsg57
Nsg58
Nsg59
Nsg60
Nsg61
Nsg62
Nsg63
Nsg64
Nsg65
Nsg66
Nsg67
Nsg68
Nsg69
Vislejazz
p1069
sg71
Nsg72
Nsg73
VDoodums Deedums
p1070
sg74
Nsg75
Nsg76
I1954704746
sg77
Nsbasg33
Nsg34
Nsg35
I643698824297377792
sg36
S"@islejazz I think her poorest watches aren't larger than your year-buyers."
p1071
sg38
I00
sg39
Ven
p1072
sg41
g44
sg78
I0
sg79
V<a href="https://google.com" rel="nofollow">TiaraBoomReadOnly</a>
p1073
sg81
(lp1074
sg76
I643911972392562688
sbag2
(g3
g4
Ntp1075
Rp1076
(dp1077
g8
I0
sg9
Nsg10
Nsg11
(lp1078
sg13
I00
sg14
Nsg15
Nsg16
(lp1079
sg18
Nsg19
Nsg20
Nsg21
S'Wed Sep 16 03:42:34 +0000 2015'
p1080
sg23
Nsg24
Nsg25
VTiaraBoom1
p1081
sg26
Nsg27
I2489360282
sg28
Nsg29
I00
sg30
Nsg31
(lp1082
g2
(g42
g4
Ntp1083
Rp1084
(dp1085
g9
Nsg46
Nsg47
Nsg49
Nsg50
Nsg51
Nsg21
Nsg52
Nsg53
Nsg54
Nsg56
Nsg57
Nsg58
Nsg59
Nsg60
Nsg61
Nsg62
Nsg63
Nsg64
Nsg65
Nsg66
Nsg67
Nsg68
Nsg69
VTiaraBoom1
p1086
sg71
Nsg72
Nsg73
VTiara Boom
p1087
sg74
Nsg75
Nsg76
I2489360282
sg77
Nsbasg33
Nsg34
Nsg35
I643911972392562688
sg36
S"@TiaraBoom1 ?? I didn't get you."
p1088
sg38
I00
sg39
Ven
p1089
sg41
g1051
sg78
I0
sg79
V<a href="http://twitter.com/download/android" rel="nofollow">Twitter for Android</a>
p1090
sg81
(lp1091
sg76
I643993350555701248
sbag2
(g3
g4
Ntp1092
Rp1093
(dp1094
g8
I0
sg9
Nsg10
Nsg11
(lp1095
sg13
I00
sg14
Nsg15
Nsg16
(lp1096
sg18
Nsg19
Nsg20
Nsg21
S'Wed Sep 16 03:43:33 +0000 2015'
p1097
sg23
Nsg24
Nsg25
Vislejazz
p1098
sg26
Nsg27
I1954704746
sg28
Nsg29
I00
sg30
Nsg31
(lp1099
g2
(g42
g4
Ntp1100
Rp1101
(dp1102
g9
Nsg46
Nsg47
Nsg49
Nsg50
Nsg51
Nsg21
Nsg52
Nsg53
Nsg54
Nsg56
Nsg57
Nsg58
Nsg59
Nsg60
Nsg61
Nsg62
Nsg63
Nsg64
Nsg65
Nsg66
Nsg67
Nsg68
Nsg69
Vislejazz
p1103
sg71
Nsg72
Nsg73
VDoodums Deedums
p1104
sg74
Nsg75
Nsg76
I1954704746
sg77
Nsbasg33
Nsg34
Nsg35
I643993350555701248
sg36
S'@islejazz Her simplest holding had been watching those years.'
p1105
sg38
I00
sg39
Ven
p1106
sg41
g44
sg78
I0
sg79
V<a href="https://google.com" rel="nofollow">TiaraBoomReadOnly</a>
p1107
sg81
(lp1108
sg76
I643993600594833408
sbaa.